target datalayout = "e-m:e-p270:32:32-p271:32:32-p272:64:64-i64:64-i128:128-f80:128-n8:16:32:64-S128"
target triple = "x86_64-pc-linux-gnu"

%"struct.ZXing::PointT" = type { double, double }
%"struct.ZXing::ConcentricPattern" = type <{ %"struct.ZXing::PointT", i32, [4 x i8] }>
%"struct.ZXing::QRCode::FinderPatternSet" = type { %"struct.ZXing::ConcentricPattern", %"struct.ZXing::ConcentricPattern", %"struct.ZXing::ConcentricPattern" }
%"class.std::initializer_list.100" = type { ptr, i64 }
%"struct.__gnu_cxx::__ops::_Iter_less_iter" = type { i8 }

; Function Attrs: mustprogress nounwind uwtable
define linkonce_odr noundef zeroext i1 @_ZNK9__gnu_cxx5__ops15_Iter_less_iterclIPKiS4_EEbT_T0_(ptr noundef nonnull align 1 dereferenceable(1) %0, ptr noundef %1, ptr noundef %2) #1 comdat align 2 {
  %4 = alloca ptr, align 8
  %5 = alloca ptr, align 8
  %6 = alloca ptr, align 8
  store ptr %0, ptr %4, align 8, !tbaa !518
  store ptr %1, ptr %5, align 8, !tbaa !285
  store ptr %2, ptr %6, align 8, !tbaa !285
  %7 = load ptr, ptr %5, align 8, !tbaa !285
  %8 = load i32, ptr %7, align 4, !tbaa !8
  %9 = load ptr, ptr %6, align 8, !tbaa !285
  %10 = load i32, ptr %9, align 4, !tbaa !8
  %11 = icmp slt i32 %8, %10
  ret i1 %11
}

; Function Attrs: mustprogress nounwind uwtable
define linkonce_odr noundef i64 @_ZNKSt16initializer_listIiE4sizeEv(ptr noundef nonnull align 8 dereferenceable(16) %0) #1 comdat align 2 {
  %2 = alloca ptr, align 8
  store ptr %0, ptr %2, align 8, !tbaa !516
  %3 = load ptr, ptr %2, align 8
  %4 = getelementptr inbounds nuw %"class.std::initializer_list.100", ptr %3, i32 0, i32 1
  %5 = load i64, ptr %4, align 8, !tbaa !179
  ret i64 %5
}

; Function Attrs: mustprogress nounwind uwtable
define linkonce_odr noundef ptr @_ZSt13__max_elementIPKiN9__gnu_cxx5__ops15_Iter_less_iterEET_S5_S5_T0_(ptr noundef %0, ptr noundef %1) #1 comdat {
  %3 = alloca ptr, align 8
  %4 = alloca %"struct.__gnu_cxx::__ops::_Iter_less_iter", align 1
  %5 = alloca ptr, align 8
  %6 = alloca ptr, align 8
  %7 = alloca ptr, align 8
  store ptr %0, ptr %5, align 8, !tbaa !285
  store ptr %1, ptr %6, align 8, !tbaa !285
  %8 = load ptr, ptr %5, align 8, !tbaa !285
  %9 = load ptr, ptr %6, align 8, !tbaa !285
  %10 = icmp eq ptr %8, %9
  br i1 %10, label %11, label %13

11:                                               ; preds = %2
  %12 = load ptr, ptr %5, align 8, !tbaa !285
  store ptr %12, ptr %3, align 8
  br label %29

13:                                               ; preds = %2
  call void @llvm.lifetime.start.p0(i64 8, ptr %7) #18
  %14 = load ptr, ptr %5, align 8, !tbaa !285
  store ptr %14, ptr %7, align 8, !tbaa !285
  br label %15

15:                                               ; preds = %26, %13
  %16 = load ptr, ptr %5, align 8, !tbaa !285
  %17 = getelementptr inbounds nuw i32, ptr %16, i32 1
  store ptr %17, ptr %5, align 8, !tbaa !285
  %18 = load ptr, ptr %6, align 8, !tbaa !285
  %19 = icmp ne ptr %17, %18
  br i1 %19, label %20, label %27

20:                                               ; preds = %15
  %21 = load ptr, ptr %7, align 8, !tbaa !285
  %22 = load ptr, ptr %5, align 8, !tbaa !285
  %23 = call noundef zeroext i1 @_ZNK9__gnu_cxx5__ops15_Iter_less_iterclIPKiS4_EEbT_T0_(ptr noundef nonnull align 1 dereferenceable(1) %4, ptr noundef %21, ptr noundef %22)
  br i1 %23, label %24, label %26

24:                                               ; preds = %20
  %25 = load ptr, ptr %5, align 8, !tbaa !285
  store ptr %25, ptr %7, align 8, !tbaa !285
  br label %26

26:                                               ; preds = %24, %20
  br label %15, !llvm.loop !520

27:                                               ; preds = %15
  %28 = load ptr, ptr %7, align 8, !tbaa !285
  store ptr %28, ptr %3, align 8
  call void @llvm.lifetime.end.p0(i64 8, ptr %7) #18
  br label %29

29:                                               ; preds = %27, %11
  %30 = load ptr, ptr %3, align 8
  ret ptr %30
}

; Function Attrs: mustprogress uwtable
define linkonce_odr noundef ptr @_ZSt13__min_elementIPKiN9__gnu_cxx5__ops15_Iter_less_iterEET_S5_S5_T0_(ptr noundef %0, ptr noundef %1) #0 comdat {
  %3 = alloca ptr, align 8
  %4 = alloca %"struct.__gnu_cxx::__ops::_Iter_less_iter", align 1
  %5 = alloca ptr, align 8
  %6 = alloca ptr, align 8
  %7 = alloca ptr, align 8
  store ptr %0, ptr %5, align 8, !tbaa !285
  store ptr %1, ptr %6, align 8, !tbaa !285
  %8 = load ptr, ptr %5, align 8, !tbaa !285
  %9 = load ptr, ptr %6, align 8, !tbaa !285
  %10 = icmp eq ptr %8, %9
  br i1 %10, label %11, label %13

11:                                               ; preds = %2
  %12 = load ptr, ptr %5, align 8, !tbaa !285
  store ptr %12, ptr %3, align 8
  br label %29

13:                                               ; preds = %2
  call void @llvm.lifetime.start.p0(i64 8, ptr %7) #18
  %14 = load ptr, ptr %5, align 8, !tbaa !285
  store ptr %14, ptr %7, align 8, !tbaa !285
  br label %15

15:                                               ; preds = %26, %13
  %16 = load ptr, ptr %5, align 8, !tbaa !285
  %17 = getelementptr inbounds nuw i32, ptr %16, i32 1
  store ptr %17, ptr %5, align 8, !tbaa !285
  %18 = load ptr, ptr %6, align 8, !tbaa !285
  %19 = icmp ne ptr %17, %18
  br i1 %19, label %20, label %27

20:                                               ; preds = %15
  %21 = load ptr, ptr %5, align 8, !tbaa !285
  %22 = load ptr, ptr %7, align 8, !tbaa !285
  %23 = call noundef zeroext i1 @_ZNK9__gnu_cxx5__ops15_Iter_less_iterclIPKiS4_EEbT_T0_(ptr noundef nonnull align 1 dereferenceable(1) %4, ptr noundef %21, ptr noundef %22)
  br i1 %23, label %24, label %26

24:                                               ; preds = %20
  %25 = load ptr, ptr %5, align 8, !tbaa !285
  store ptr %25, ptr %7, align 8, !tbaa !285
  br label %26

26:                                               ; preds = %24, %20
  br label %15, !llvm.loop !515

27:                                               ; preds = %15
  %28 = load ptr, ptr %7, align 8, !tbaa !285
  store ptr %28, ptr %3, align 8
  call void @llvm.lifetime.end.p0(i64 8, ptr %7) #18
  br label %29

29:                                               ; preds = %27, %11
  %30 = load ptr, ptr %3, align 8
  ret ptr %30
}

; Function Attrs: inlinehint mustprogress nounwind uwtable
define linkonce_odr void @_ZN9__gnu_cxx5__ops16__iter_less_iterEv() #8 comdat {
  ret void
}

; Function Attrs: mustprogress nounwind uwtable
define linkonce_odr noundef ptr @_ZNKSt16initializer_listIiE3endEv(ptr noundef nonnull align 8 dereferenceable(16) %0) #1 comdat align 2 {
  %2 = alloca ptr, align 8
  store ptr %0, ptr %2, align 8, !tbaa !516
  %3 = load ptr, ptr %2, align 8
  %4 = call noundef ptr @_ZNKSt16initializer_listIiE5beginEv(ptr noundef nonnull align 8 dereferenceable(16) %3) #18
  %5 = call noundef i64 @_ZNKSt16initializer_listIiE4sizeEv(ptr noundef nonnull align 8 dereferenceable(16) %3) #18
  %6 = getelementptr inbounds nuw i32, ptr %4, i64 %5
  ret ptr %6
}

; Function Attrs: mustprogress nounwind uwtable
define linkonce_odr noundef ptr @_ZNKSt16initializer_listIiE5beginEv(ptr noundef nonnull align 8 dereferenceable(16) %0) #1 comdat align 2 {
  %2 = alloca ptr, align 8
  store ptr %0, ptr %2, align 8, !tbaa !516
  %3 = load ptr, ptr %2, align 8
  %4 = getelementptr inbounds nuw %"class.std::initializer_list.100", ptr %3, i32 0, i32 0
  %5 = load ptr, ptr %4, align 8, !tbaa !176
  ret ptr %5
}

; Function Attrs: inlinehint mustprogress uwtable
define linkonce_odr noundef i32 @_ZSt3maxIiET_St16initializer_listIS0_E(ptr %0, i64 %1) #5 comdat {
  %3 = alloca %"class.std::initializer_list.100", align 8
  %4 = getelementptr inbounds nuw { ptr, i64 }, ptr %3, i32 0, i32 0
  store ptr %0, ptr %4, align 8
  %5 = getelementptr inbounds nuw { ptr, i64 }, ptr %3, i32 0, i32 1
  store i64 %1, ptr %5, align 8
  %6 = call noundef ptr @_ZNKSt16initializer_listIiE5beginEv(ptr noundef nonnull align 8 dereferenceable(16) %3) #18
  %7 = call noundef ptr @_ZNKSt16initializer_listIiE3endEv(ptr noundef nonnull align 8 dereferenceable(16) %3) #18
  call void @_ZN9__gnu_cxx5__ops16__iter_less_iterEv()
  %8 = call noundef ptr @_ZSt13__max_elementIPKiN9__gnu_cxx5__ops15_Iter_less_iterEET_S5_S5_T0_(ptr noundef %6, ptr noundef %7)
  %9 = load i32, ptr %8, align 4, !tbaa !8
  ret i32 %9
}

; Function Attrs: inlinehint mustprogress uwtable
define linkonce_odr noundef i32 @_ZSt3minIiET_St16initializer_listIS0_E(ptr %0, i64 %1) #5 comdat {
  %3 = alloca %"class.std::initializer_list.100", align 8
  %4 = getelementptr inbounds nuw { ptr, i64 }, ptr %3, i32 0, i32 0
  store ptr %0, ptr %4, align 8
  %5 = getelementptr inbounds nuw { ptr, i64 }, ptr %3, i32 0, i32 1
  store i64 %1, ptr %5, align 8
  %6 = call noundef ptr @_ZNKSt16initializer_listIiE5beginEv(ptr noundef nonnull align 8 dereferenceable(16) %3) #18
  %7 = call noundef ptr @_ZNKSt16initializer_listIiE3endEv(ptr noundef nonnull align 8 dereferenceable(16) %3) #18
  call void @_ZN9__gnu_cxx5__ops16__iter_less_iterEv()
  %8 = call noundef ptr @_ZSt13__min_elementIPKiN9__gnu_cxx5__ops15_Iter_less_iterEET_S5_S5_T0_(ptr noundef %6, ptr noundef %7)
  %9 = load i32, ptr %8, align 4, !tbaa !8
  ret i32 %9
}

; Function Attrs: mustprogress uwtable
define internal noundef double @_ZN5ZXing6QRCodeL12EstimateTiltERKNS0_16FinderPatternSetE(ptr noundef nonnull align 8 dereferenceable(72) %0) #0 {
  %2 = alloca ptr, align 8
  %3 = alloca i32, align 4
  %4 = alloca %"class.std::initializer_list.100", align 8
  %5 = alloca [3 x i32], align 4
  %6 = alloca i32, align 4
  %7 = alloca %"class.std::initializer_list.100", align 8
  %8 = alloca [3 x i32], align 4
  store ptr %0, ptr %2, align 8, !tbaa !90
  call void @llvm.lifetime.start.p0(i64 4, ptr %3) #18
  call void @llvm.lifetime.start.p0(i64 12, ptr %5) #18
  %9 = load ptr, ptr %2, align 8, !tbaa !90
  %10 = getelementptr inbounds nuw %"struct.ZXing::QRCode::FinderPatternSet", ptr %9, i32 0, i32 0
  %11 = getelementptr inbounds nuw %"struct.ZXing::ConcentricPattern", ptr %10, i32 0, i32 1
  %12 = load i32, ptr %11, align 8, !tbaa !173
  store i32 %12, ptr %5, align 4, !tbaa !8
  %13 = getelementptr inbounds i32, ptr %5, i64 1
  %14 = load ptr, ptr %2, align 8, !tbaa !90
  %15 = getelementptr inbounds nuw %"struct.ZXing::QRCode::FinderPatternSet", ptr %14, i32 0, i32 1
  %16 = getelementptr inbounds nuw %"struct.ZXing::ConcentricPattern", ptr %15, i32 0, i32 1
  %17 = load i32, ptr %16, align 8, !tbaa !174
  store i32 %17, ptr %13, align 4, !tbaa !8
  %18 = getelementptr inbounds i32, ptr %5, i64 2
  %19 = load ptr, ptr %2, align 8, !tbaa !90
  %20 = getelementptr inbounds nuw %"struct.ZXing::QRCode::FinderPatternSet", ptr %19, i32 0, i32 2
  %21 = getelementptr inbounds nuw %"struct.ZXing::ConcentricPattern", ptr %20, i32 0, i32 1
  %22 = load i32, ptr %21, align 8, !tbaa !175
  store i32 %22, ptr %18, align 4, !tbaa !8
  %23 = getelementptr inbounds nuw %"class.std::initializer_list.100", ptr %4, i32 0, i32 0
  store ptr %5, ptr %23, align 8, !tbaa !176
  %24 = getelementptr inbounds nuw %"class.std::initializer_list.100", ptr %4, i32 0, i32 1
  store i64 3, ptr %24, align 8, !tbaa !179
  %25 = getelementptr inbounds nuw { ptr, i64 }, ptr %4, i32 0, i32 0
  %26 = load ptr, ptr %25, align 8
  %27 = getelementptr inbounds nuw { ptr, i64 }, ptr %4, i32 0, i32 1
  %28 = load i64, ptr %27, align 8
  %29 = call noundef i32 @_ZSt3minIiET_St16initializer_listIS0_E(ptr %26, i64 %28)
  call void @llvm.lifetime.end.p0(i64 12, ptr %5) #18
  store i32 %29, ptr %3, align 4, !tbaa !8
  call void @llvm.lifetime.start.p0(i64 4, ptr %6) #18
  call void @llvm.lifetime.start.p0(i64 12, ptr %8) #18
  %30 = load ptr, ptr %2, align 8, !tbaa !90
  %31 = getelementptr inbounds nuw %"struct.ZXing::QRCode::FinderPatternSet", ptr %30, i32 0, i32 0
  %32 = getelementptr inbounds nuw %"struct.ZXing::ConcentricPattern", ptr %31, i32 0, i32 1
  %33 = load i32, ptr %32, align 8, !tbaa !173
  store i32 %33, ptr %8, align 4, !tbaa !8
  %34 = getelementptr inbounds i32, ptr %8, i64 1
  %35 = load ptr, ptr %2, align 8, !tbaa !90
  %36 = getelementptr inbounds nuw %"struct.ZXing::QRCode::FinderPatternSet", ptr %35, i32 0, i32 1
  %37 = getelementptr inbounds nuw %"struct.ZXing::ConcentricPattern", ptr %36, i32 0, i32 1
  %38 = load i32, ptr %37, align 8, !tbaa !174
  store i32 %38, ptr %34, align 4, !tbaa !8
  %39 = getelementptr inbounds i32, ptr %8, i64 2
  %40 = load ptr, ptr %2, align 8, !tbaa !90
  %41 = getelementptr inbounds nuw %"struct.ZXing::QRCode::FinderPatternSet", ptr %40, i32 0, i32 2
  %42 = getelementptr inbounds nuw %"struct.ZXing::ConcentricPattern", ptr %41, i32 0, i32 1
  %43 = load i32, ptr %42, align 8, !tbaa !175
  store i32 %43, ptr %39, align 4, !tbaa !8
  %44 = getelementptr inbounds nuw %"class.std::initializer_list.100", ptr %7, i32 0, i32 0
  store ptr %8, ptr %44, align 8, !tbaa !176
  %45 = getelementptr inbounds nuw %"class.std::initializer_list.100", ptr %7, i32 0, i32 1
  store i64 3, ptr %45, align 8, !tbaa !179
  %46 = getelementptr inbounds nuw { ptr, i64 }, ptr %7, i32 0, i32 0
  %47 = load ptr, ptr %46, align 8
  %48 = getelementptr inbounds nuw { ptr, i64 }, ptr %7, i32 0, i32 1
  %49 = load i64, ptr %48, align 8
  %50 = call noundef i32 @_ZSt3maxIiET_St16initializer_listIS0_E(ptr %47, i64 %49)
  call void @llvm.lifetime.end.p0(i64 12, ptr %8) #18
  store i32 %50, ptr %6, align 4, !tbaa !8
  %51 = load i32, ptr %6, align 4, !tbaa !8
  %52 = sitofp i32 %51 to double
  %53 = load i32, ptr %3, align 4, !tbaa !8
  %54 = sitofp i32 %53 to double
  %55 = fdiv double %52, %54
  call void @llvm.lifetime.end.p0(i64 4, ptr %6) #18
  call void @llvm.lifetime.end.p0(i64 4, ptr %3) #18
  ret double %55
}