; Function Attrs: mustprogress nofree norecurse nosync nounwind willreturn memory(argmem: read) uwtable
define internal fastcc noundef double @_ZN5ZXing6QRCodeL12EstimateTiltERKNS0_16FinderPatternSetE(ptr noundef nonnull readonly align 8 captures(none) dereferenceable(72) %0) unnamed_addr #7 {
  %2 = alloca [3 x i32], align 4
  %3 = alloca [3 x i32], align 4
  call void @llvm.lifetime.start.p0(i64 12, ptr nonnull %2) #21
  %4 = getelementptr inbounds nuw i8, ptr %0, i64 16
  %5 = load i32, ptr %4, align 8, !tbaa !240
  store i32 %5, ptr %2, align 4, !tbaa !24
  %.ptr15 = getelementptr inbounds nuw i8, ptr %2, i64 4
  %6 = getelementptr inbounds nuw i8, ptr %0, i64 40
  %7 = load i32, ptr %6, align 8, !tbaa !241
  store i32 %7, ptr %.ptr15, align 4, !tbaa !24
  %8 = getelementptr inbounds nuw i8, ptr %2, i64 8
  %9 = getelementptr inbounds nuw i8, ptr %0, i64 64
  %10 = load i32, ptr %9, align 8, !tbaa !242
  store i32 %10, ptr %8, align 4, !tbaa !24
  br label %.lr.ph.i.i

.lr.ph.i.i:                                       ; preds = %.lr.ph.i.i, %1
  %11 = phi i32 [ %14, %.lr.ph.i.i ], [ %5, %1 ]
  %.idx = phi i64 [ %.add, %.lr.ph.i.i ], [ 4, %1 ]
  %.018.i.i = phi ptr [ %spec.select.i.i, %.lr.ph.i.i ], [ %2, %1 ]
  %.ptr = getelementptr inbounds nuw i8, ptr %2, i64 %.idx
  %12 = load i32, ptr %.ptr, align 4, !tbaa !24
  %13 = icmp slt i32 %12, %11
  %14 = tail call i32 @llvm.smin.i32(i32 %12, i32 %11)
  %spec.select.i.i = select i1 %13, ptr %.ptr, ptr %.018.i.i
  %.add = add nuw nsw i64 %.idx, 4
  %.not.i.i = icmp eq i64 %.add, 12
  br i1 %.not.i.i, label %_ZSt3minIiET_St16initializer_listIS0_E.exit, label %.lr.ph.i.i, !llvm.loop !243

_ZSt3minIiET_St16initializer_listIS0_E.exit:      ; preds = %.lr.ph.i.i
  %15 = load i32, ptr %spec.select.i.i, align 4, !tbaa !24
  call void @llvm.lifetime.end.p0(i64 12, ptr nonnull %2) #21
  call void @llvm.lifetime.start.p0(i64 12, ptr nonnull %3) #21
  store i32 %5, ptr %3, align 4, !tbaa !24
  %.ptr20 = getelementptr inbounds nuw i8, ptr %3, i64 4
  store i32 %7, ptr %.ptr20, align 4, !tbaa !24
  %16 = getelementptr inbounds nuw i8, ptr %3, i64 8
  store i32 %10, ptr %16, align 4, !tbaa !24
  br label %.lr.ph.i.i10

.lr.ph.i.i10:                                     ; preds = %.lr.ph.i.i10, %_ZSt3minIiET_St16initializer_listIS0_E.exit
  %17 = phi i32 [ %20, %.lr.ph.i.i10 ], [ %5, %_ZSt3minIiET_St16initializer_listIS0_E.exit ]
  %.idx16 = phi i64 [ %.add17, %.lr.ph.i.i10 ], [ 4, %_ZSt3minIiET_St16initializer_listIS0_E.exit ]
  %.018.i.i11 = phi ptr [ %spec.select.i.i12, %.lr.ph.i.i10 ], [ %3, %_ZSt3minIiET_St16initializer_listIS0_E.exit ]
  %.ptr18 = getelementptr inbounds nuw i8, ptr %3, i64 %.idx16
  %18 = load i32, ptr %.ptr18, align 4, !tbaa !24
  %19 = icmp slt i32 %17, %18
  %20 = tail call i32 @llvm.smax.i32(i32 %17, i32 %18)
  %spec.select.i.i12 = select i1 %19, ptr %.ptr18, ptr %.018.i.i11
  %.add17 = add nuw nsw i64 %.idx16, 4
  %.not.i.i13 = icmp eq i64 %.add17, 12
  br i1 %.not.i.i13, label %_ZSt3maxIiET_St16initializer_listIS0_E.exit, label %.lr.ph.i.i10, !llvm.loop !244

_ZSt3maxIiET_St16initializer_listIS0_E.exit:      ; preds = %.lr.ph.i.i10
  %21 = load i32, ptr %spec.select.i.i12, align 4, !tbaa !24
  call void @llvm.lifetime.end.p0(i64 12, ptr nonnull %3) #21
  %22 = sitofp i32 %21 to double
  %23 = sitofp i32 %15 to double
  %24 = fdiv double %22, %23
  ret double %24
}